; Function Attrs: mustprogress uwtable
define void @_ZN6icu_7713DecimalFormatC2ERKNS_13UnicodeStringEPNS_20DecimalFormatSymbolsER10UErrorCode(ptr noundef nonnull align 8 dereferenceable(72) %0, ptr noundef nonnull align 8 dereferenceable(64) %1, ptr noundef %2, ptr noundef nonnull align 4 dereferenceable(4) %3) unnamed_addr #1 align 2 personality ptr @__gxx_personality_v0 {
  tail call void @_ZN6icu_7713DecimalFormatC2EPKNS_20DecimalFormatSymbolsER10UErrorCode(ptr noundef nonnull align 8 dereferenceable(72) %0, ptr noundef %2, ptr noundef nonnull align 4 dereferenceable(4) %3)
  %5 = load i32, ptr %3, align 4, !tbaa !13
  %6 = icmp slt i32 %5, 1
  br i1 %6, label %9, label %13

7:                                                ; preds = %9, %_ZN6icu_7713DecimalFormat24setPropertiesFromPatternERKNS_13UnicodeStringEiR10UErrorCode.exit
  %8 = landingpad { ptr, i32 }
          cleanup
  tail call void @_ZN6icu_7713DecimalFormatD2Ev(ptr noundef nonnull align 8 dereferenceable(72) %0) #19
  resume { ptr, i32 } %8

9:                                                ; preds = %4
  %10 = getelementptr inbounds nuw i8, ptr %0, i64 64
  %11 = load ptr, ptr %10, align 8, !tbaa !25
  %12 = getelementptr inbounds nuw i8, ptr %11, i64 8
  invoke void @_ZN6icu_776number4impl13PatternParser25parseToExistingPropertiesERKNS_13UnicodeStringERNS1_23DecimalFormatPropertiesENS1_14IgnoreRoundingER10UErrorCode(ptr noundef nonnull align 8 dereferenceable(64) %1, ptr noundef nonnull align 8 dereferenceable(757) %12, i32 noundef 1, ptr noundef nonnull align 4 dereferenceable(4) %3)
          to label %_ZN6icu_7713DecimalFormat24setPropertiesFromPatternERKNS_13UnicodeStringEiR10UErrorCode.exit unwind label %7

_ZN6icu_7713DecimalFormat24setPropertiesFromPatternERKNS_13UnicodeStringEiR10UErrorCode.exit: ; preds = %9
  invoke void @_ZN6icu_7713DecimalFormat5touchER10UErrorCode(ptr noundef nonnull align 8 dereferenceable(72) %0, ptr noundef nonnull align 4 dereferenceable(4) %3)
          to label %13 unwind label %7

13:                                               ; preds = %4, %_ZN6icu_7713DecimalFormat24setPropertiesFromPatternERKNS_13UnicodeStringEiR10UErrorCode.exit
  ret void
}